; Function Attrs: nounwind uwtable
define hidden void @_ir_TAILCALL_2(ptr nocapture noundef %0, i32 noundef %1, i32 noundef %2, i32 noundef %3, i32 noundef %4) local_unnamed_addr #0 {
  %6 = getelementptr inbounds i8, ptr %0, i64 32
  %7 = load i32, ptr %6, align 8
  %8 = icmp eq i32 %7, -1
  br i1 %8, label %9, label %10

9:                                                ; preds = %5
  store i32 %1, ptr %6, align 8
  br label %10

10:                                               ; preds = %9, %5
  %11 = shl i32 %1, 8
  %12 = and i32 %11, 16514816
  %13 = getelementptr inbounds i8, ptr %0, i64 8
  %14 = load i32, ptr %13, align 8
  %15 = add nsw i32 %14, 1
  %16 = getelementptr inbounds i8, ptr %0, i64 12
  %17 = load i32, ptr %16, align 4
  %.not22.i = icmp slt i32 %15, %17
  %.pre30.i = load ptr, ptr %0, align 8
  br i1 %.not22.i, label %ir_emit_N.exit, label %.lr.ph.i

.lr.ph.i:                                         ; preds = %10
  %18 = getelementptr inbounds i8, ptr %0, i64 20
  %.pre29.i = load i32, ptr %18, align 4
  br label %19

19:                                               ; preds = %19, %.lr.ph.i
  %20 = phi i32 [ %.pre29.i, %.lr.ph.i ], [ %34, %19 ]
  %21 = phi ptr [ %.pre30.i, %.lr.ph.i ], [ %36, %19 ]
  %22 = phi i32 [ %17, %.lr.ph.i ], [ %37, %19 ]
  %23 = icmp slt i32 %22, 4096
  %24 = shl nsw i32 %22, 1
  %25 = icmp ult i32 %22, 8192
  %26 = add nuw nsw i32 %22, 4096
  %spec.select.i.i = select i1 %25, i32 8192, i32 %26
  %.sink.i.i = select i1 %23, i32 %24, i32 %spec.select.i.i
  store i32 %.sink.i.i, ptr %16, align 4
  %27 = sext i32 %20 to i64
  %28 = sub nsw i64 0, %27
  %29 = getelementptr inbounds %struct._ir_insn, ptr %21, i64 %28
  %30 = add nsw i32 %.sink.i.i, %20
  %31 = sext i32 %30 to i64
  %32 = shl nsw i64 %31, 4
  %33 = tail call ptr @_erealloc(ptr noundef %29, i64 noundef %32) #24
  %34 = load i32, ptr %18, align 4
  %35 = sext i32 %34 to i64
  %36 = getelementptr inbounds %struct._ir_insn, ptr %33, i64 %35
  store ptr %36, ptr %0, align 8
  %37 = load i32, ptr %16, align 4
  %.not.i = icmp slt i32 %15, %37
  br i1 %.not.i, label %ir_emit_N.exit, label %19

ir_emit_N.exit:                                   ; preds = %19, %10
  %38 = phi ptr [ %.pre30.i, %10 ], [ %36, %19 ]
  %39 = add i32 %14, 2
  store i32 %39, ptr %13, align 8
  %40 = sext i32 %14 to i64
  %41 = getelementptr inbounds %struct._ir_insn, ptr %38, i64 %40
  %42 = or disjoint i32 %12, 262214
  store i32 %42, ptr %41, align 8
  %43 = shl nsw i64 %40, 4
  %44 = or disjoint i64 %43, 4
  %scevgep.i = getelementptr i8, ptr %38, i64 %44
  tail call void @llvm.memset.p0.i64(ptr noundef nonnull align 4 dereferenceable(28) %scevgep.i, i8 0, i64 28, i1 false)
  %45 = getelementptr inbounds i8, ptr %0, i64 248
  %46 = load i32, ptr %45, align 8
  %47 = load ptr, ptr %0, align 8
  %48 = getelementptr inbounds %struct._ir_insn, ptr %47, i64 %40, i32 0, i32 1
  store i32 %46, ptr %48, align 4
  %49 = load ptr, ptr %0, align 8
  %50 = getelementptr inbounds %struct._ir_insn, ptr %49, i64 %40, i32 1
  store i32 %2, ptr %50, align 4
  %51 = load ptr, ptr %0, align 8
  %52 = getelementptr inbounds %struct._ir_insn, ptr %51, i64 %40
  %53 = getelementptr inbounds i8, ptr %52, i64 12
  store i32 %3, ptr %53, align 4
  %54 = load ptr, ptr %0, align 8
  %55 = getelementptr inbounds %struct._ir_insn, ptr %54, i64 %40
  %56 = getelementptr inbounds i8, ptr %55, i64 16
  store i32 %4, ptr %56, align 4
  store i32 %14, ptr %45, align 8
  %57 = load ptr, ptr %0, align 8
  %58 = getelementptr inbounds i8, ptr %57, i64 20
  %59 = load i32, ptr %58, align 4
  %60 = load i32, ptr %13, align 8
  %61 = load i32, ptr %16, align 4
  %.not.i.i.i.i = icmp slt i32 %60, %61
  br i1 %.not.i.i.i.i, label %_ir_UNREACHABLE.exit, label %62

62:                                               ; preds = %ir_emit_N.exit
  %63 = getelementptr inbounds i8, ptr %0, i64 20
  %64 = load i32, ptr %63, align 4
  %65 = icmp slt i32 %61, 4096
  %66 = shl nsw i32 %61, 1
  %67 = icmp ult i32 %61, 8192
  %68 = add nuw nsw i32 %61, 4096
  %spec.select.i.i.i.i.i = select i1 %67, i32 8192, i32 %68
  %.sink.i.i.i.i.i = select i1 %65, i32 %66, i32 %spec.select.i.i.i.i.i
  store i32 %.sink.i.i.i.i.i, ptr %16, align 4
  %69 = sext i32 %64 to i64
  %70 = sub nsw i64 0, %69
  %71 = getelementptr inbounds %struct._ir_insn, ptr %57, i64 %70
  %72 = add nsw i32 %64, %.sink.i.i.i.i.i
  %73 = sext i32 %72 to i64
  %74 = shl nsw i64 %73, 4
  %75 = tail call ptr @_erealloc(ptr noundef %71, i64 noundef %74) #24
  %76 = load i32, ptr %63, align 4
  %77 = sext i32 %76 to i64
  %78 = getelementptr inbounds %struct._ir_insn, ptr %75, i64 %77
  store ptr %78, ptr %0, align 8
  br label %_ir_UNREACHABLE.exit

_ir_UNREACHABLE.exit:                             ; preds = %ir_emit_N.exit, %62
  %79 = phi ptr [ %57, %ir_emit_N.exit ], [ %78, %62 ]
  %80 = add nsw i32 %60, 1
  store i32 %80, ptr %13, align 8
  %81 = sext i32 %60 to i64
  %82 = getelementptr inbounds %struct._ir_insn, ptr %79, i64 %81
  store i32 104, ptr %82, align 8
  %83 = getelementptr inbounds i8, ptr %82, i64 4
  store i32 %14, ptr %83, align 4
  %84 = getelementptr inbounds i8, ptr %82, i64 8
  store i32 0, ptr %84, align 8
  %85 = getelementptr inbounds i8, ptr %82, i64 12
  store i32 %59, ptr %85, align 4
  %86 = load ptr, ptr %0, align 8
  %87 = getelementptr inbounds i8, ptr %86, i64 20
  store i32 %60, ptr %87, align 4
  store i32 0, ptr %45, align 8
  ret void
}